target datalayout = "e-m:e-p270:32:32-p271:32:32-p272:64:64-i64:64-i128:128-f80:128-n8:16:32:64-S128"
target triple = "x86_64-pc-linux-gnu"

%struct._lv_obj_t = type { ptr, ptr, ptr, ptr, ptr, %struct.lv_area_t, i32, i16, i16 }
%struct.lv_area_t = type { i32, i32, i32, i32 }
%struct.lv_point_t = type { i32, i32 }

; Function Attrs: nounwind uwtable
define void @lv_obj_scroll_to_view(ptr noundef %0, i32 noundef %1) #0 {
  %3 = alloca ptr, align 8
  %4 = alloca i32, align 4
  %5 = alloca %struct.lv_point_t, align 4
  store ptr %0, ptr %3, align 8, !tbaa !3
  store i32 %1, ptr %4, align 4, !tbaa !7
  %6 = load ptr, ptr %3, align 8, !tbaa !3
  call void @lv_obj_update_layout(ptr noundef %6)
  call void @llvm.lifetime.start.p0(i64 8, ptr %5) #5
  call void @llvm.memset.p0.i64(ptr align 4 %5, i8 0, i64 8, i1 false)
  %7 = load ptr, ptr %3, align 8, !tbaa !3
  %8 = getelementptr inbounds nuw %struct._lv_obj_t, ptr %7, i32 0, i32 5
  %9 = load ptr, ptr %3, align 8, !tbaa !3
  %10 = load i32, ptr %4, align 4, !tbaa !7
  call void @scroll_area_into_view(ptr noundef %8, ptr noundef %9, ptr noundef %5, i32 noundef %10)
  call void @llvm.lifetime.end.p0(i64 8, ptr %5) #5
  ret void
}