; Function Attrs: nounwind uwtable
define void @lv_obj_scroll_to_view(ptr noundef %0, i32 noundef %1) local_unnamed_addr #0 {
  %3 = alloca %struct.lv_point_t, align 8
  tail call void @lv_obj_update_layout(ptr noundef %0) #5
  call void @llvm.lifetime.start.p0(i64 8, ptr nonnull %3) #5
  store i64 0, ptr %3, align 8
  %4 = getelementptr inbounds nuw i8, ptr %0, i64 40
  call fastcc void @scroll_area_into_view(ptr noundef nonnull %4, ptr noundef %0, ptr noundef %3, i32 noundef %1)
  call void @llvm.lifetime.end.p0(i64 8, ptr nonnull %3) #5
  ret void
}